(dp0
S'aa352f5e-b6a4-4147-8235-53b73185790a'
p1
(dp2
S'date'
p3
F1524743681.683
sS'duration'
p4
cnumpy.core.multiarray
scalar
p5
(cnumpy
dtype
p6
(S'f8'
p7
I0
I1
tp8
Rp9
(I3
S'<'
p10
NNNI-1
I-1
I0
tp11
bS'\x9a\x99\x99\x99\x99\x19)@'
p12
tp13
Rp14
sS'uuid'
p15
g1
ss.