(dp0
S'c6262843-e274-4017-86f1-6ce251355f4f'
p1
(dp2
S'date'
p3
F1527079426.484
sS'duration'
p4
cnumpy.core.multiarray
scalar
p5
(cnumpy
dtype
p6
(S'f8'
p7
I0
I1
tp8
Rp9
(I3
S'<'
p10
NNNI-1
I-1
I0
tp11
bS'333333\x11@'
p12
tp13
Rp14
sS'uuid'
p15
g1
ssS'f0b06e15-8959-4c1f-95ed-b8bbae702bf8'
p16
(dp17
g3
F1527079693.368
sg4
g5
(g9
S'\xcd\xcc\xcc\xcc\xcc\xec?@'
p18
tp19
Rp20
sg15
g16
ss.