(dp0
S'f0463f6d-58b6-449c-b3e1-4f9e020c62a3'
p1
(dp2
S'date'
p3
F1524749372.459
sS'duration'
p4
cnumpy.core.multiarray
scalar
p5
(cnumpy
dtype
p6
(S'f8'
p7
I0
I1
tp8
Rp9
(I3
S'<'
p10
NNNI-1
I-1
I0
tp11
bS'UUUUU\xd5!@'
p12
tp13
Rp14
sS'uuid'
p15
g1
ssS'25b38d62-a065-4551-b4c8-9005945b3461'
p16
(dp17
S'date'
p18
F1524649527.796
sS'duration'
p19
g5
(g9
S'DDDDD\x84%@'
p20
tp21
Rp22
sS'uuid'
p23
g16
ssS'90df8c5f-a7ba-499d-a29f-f6029dcda8d2'
p24
(dp25
g3
F1524747243.206
sg4
g5
(g9
S'\x11\x11\x11\x11\x11q2@'
p26
tp27
Rp28
sg15
g24
ss.