(dp0
S'12d76dc8-29b9-49bc-875e-ed093e06c446'
p1
(dp2
S'date'
p3
F1530709672.807
sS'duration'
p4
cnumpy.core.multiarray
scalar
p5
(cnumpy
dtype
p6
(S'f8'
p7
I0
I1
tp8
Rp9
(I3
S'<'
p10
NNNI-1
I-1
I0
tp11
bS'\xde\xdd\xdd\xdd\xdd]0@'
p12
tp13
Rp14
sS'uuid'
p15
g1
ss.