(dp0
S'44403dc2-f078-4236-b7f4-afb2ab3c1cf8'
p1
(dp2
S'date'
p3
F1527154181.031
sS'duration'
p4
cnumpy.core.multiarray
scalar
p5
(cnumpy
dtype
p6
(S'f8'
p7
I0
I1
tp8
Rp9
(I3
S'<'
p10
NNNI-1
I-1
I0
tp11
bS'\x00\x00\x00\x00\x00\xa09@'
p12
tp13
Rp14
sS'uuid'
p15
g1
ss.