(dp0
S'd097b9df-5975-4c0a-9be0-cb8618b53bb0'
p1
(dp2
S'date'
p3
F1526908327.86
sS'duration'
p4
cnumpy.core.multiarray
scalar
p5
(cnumpy
dtype
p6
(S'f8'
p7
I0
I1
tp8
Rp9
(I3
S'<'
p10
NNNI-1
I-1
I0
tp11
bS'\x9a\x99\x99\x99\x999@@'
p12
tp13
Rp14
sS'uuid'
p15
g1
ss.