(dp0
S'ec8394ca-f9a5-40e3-b700-94ead2f55730'
p1
(dp2
S'date'
p3
F1534234485.046
sS'duration'
p4
cnumpy.core.multiarray
scalar
p5
(cnumpy
dtype
p6
(S'f8'
p7
I0
I1
tp8
Rp9
(I3
S'<'
p10
NNNI-1
I-1
I0
tp11
bS'\x89\x88\x88\x88\x88\x98B@'
p12
tp13
Rp14
sS'uuid'
p15
g1
ss.