(dp0
S'30a9710c-5abf-4a7c-a3df-771d8e1b9fdb'
p1
(dp2
S'date'
p3
F1527149355.864
sS'duration'
p4
cnumpy.core.multiarray
scalar
p5
(cnumpy
dtype
p6
(S'f8'
p7
I0
I1
tp8
Rp9
(I3
S'<'
p10
NNNI-1
I-1
I0
tp11
bS'fffff\x061@'
p12
tp13
Rp14
sS'uuid'
p15
g1
ss.