(dp0
S'c22bffb9-5985-442b-8caa-7953929ec5e2'
p1
(dp2
S'date'
p3
F1526905215.743
sS'duration'
p4
cnumpy.core.multiarray
scalar
p5
(cnumpy
dtype
p6
(S'f8'
p7
I0
I1
tp8
Rp9
(I3
S'<'
p10
NNNI-1
I-1
I0
tp11
bS'fffffF?@'
p12
tp13
Rp14
sS'uuid'
p15
g1
ss.