(dp0
S'2fc8ee99-e1a6-49b2-9c8b-d5f242f12bb7'
p1
(dp2
S'date'
p3
F1524838744.79
sS'duration'
p4
cnumpy.core.multiarray
scalar
p5
(cnumpy
dtype
p6
(S'f8'
p7
I0
I1
tp8
Rp9
(I3
S'<'
p10
NNNI-1
I-1
I0
tp11
bS'\xcd\xcc\xcc\xcc\xcc,6@'
p12
tp13
Rp14
sS'uuid'
p15
g1
ss.