(dp0
S'bc3d2f5c-8d9d-4866-aaed-70d78dc90163'
p1
(dp2
S'date'
p3
F1527151462.067
sS'duration'
p4
cnumpy.core.multiarray
scalar
p5
(cnumpy
dtype
p6
(S'f8'
p7
I0
I1
tp8
Rp9
(I3
S'<'
p10
NNNI-1
I-1
I0
tp11
bS'\xbc\xbb\xbb\xbb\xbb;>@'
p12
tp13
Rp14
sS'uuid'
p15
g1
ss.