(dp0
S'bf08e410-e81e-400f-be81-94224a5027dc'
p1
(dp2
S'date'
p3
F1524656375.014
sS'duration'
p4
cnumpy.core.multiarray
scalar
p5
(cnumpy
dtype
p6
(S'f8'
p7
I0
I1
tp8
Rp9
(I3
S'<'
p10
NNNI-1
I-1
I0
tp11
bS'3333337@'
p12
tp13
Rp14
sS'uuid'
p15
g1
ss.