(dp0
S'065cc663-7d8a-4e57-baf1-f9be7f8b0ac2'
p1
(dp2
S'date'
p3
F1524750322.01
sS'duration'
p4
cnumpy.core.multiarray
scalar
p5
(cnumpy
dtype
p6
(S'f8'
p7
I0
I1
tp8
Rp9
(I3
S'<'
p10
NNNI-1
I-1
I0
tp11
bS'fffff&6@'
p12
tp13
Rp14
sS'uuid'
p15
g1
ss.