(dp0
S'bcf21390-86f3-428c-b1c4-7b34a349317a'
p1
(dp2
S'date'
p3
F1534237678.828
sS'duration'
p4
cnumpy.core.multiarray
scalar
p5
(cnumpy
dtype
p6
(S'f8'
p7
I0
I1
tp8
Rp9
(I3
S'<'
p10
NNNI-1
I-1
I0
tp11
bS'\xde\xdd\xdd\xdd\xdd]1@'
p12
tp13
Rp14
sS'uuid'
p15
g1
ss.