(dp0
S'36bb87aa-aec1-43d6-ba0d-27077eafb286'
p1
(dp2
S'date'
p3
F1526911065.844
sS'duration'
p4
cnumpy.core.multiarray
scalar
p5
(cnumpy
dtype
p6
(S'f8'
p7
I0
I1
tp8
Rp9
(I3
S'<'
p10
NNNI-1
I-1
I0
tp11
bS'33333\xc3A@'
p12
tp13
Rp14
sS'uuid'
p15
g1
ss.