(dp0
S'856031ab-16bd-4529-abff-b718f73f67ae'
p1
(dp2
S'date'
p3
F1527076919.658
sS'duration'
p4
cnumpy.core.multiarray
scalar
p5
(cnumpy
dtype
p6
(S'f8'
p7
I0
I1
tp8
Rp9
(I3
S'<'
p10
NNNI-1
I-1
I0
tp11
bS'DDDDD\x84>@'
p12
tp13
Rp14
sS'uuid'
p15
g1
ss.